target datalayout = "e-m:e-p270:32:32-p271:32:32-p272:64:64-i64:64-i128:128-f80:128-n8:16:32:64-S128"
target triple = "x86_64-pc-linux-gnu"

%struct.Vec_Int_t_ = type { i32, i32, ptr }

@.str.2 = private unnamed_addr constant [34 x i8] c"Collected %d outputs to extract.\0A\00", align 1

; Function Attrs: inlinehint nounwind uwtable
define internal void @Vec_IntFree(ptr noundef %0) #2 {
  %2 = alloca ptr, align 8
  store ptr %0, ptr %2, align 8, !tbaa !33
  %3 = load ptr, ptr %2, align 8, !tbaa !33
  %4 = getelementptr inbounds nuw %struct.Vec_Int_t_, ptr %3, i32 0, i32 2
  %5 = load ptr, ptr %4, align 8, !tbaa !44
  %6 = icmp ne ptr %5, null
  br i1 %6, label %7, label %13

7:                                                ; preds = %1
  %8 = load ptr, ptr %2, align 8, !tbaa !33
  %9 = getelementptr inbounds nuw %struct.Vec_Int_t_, ptr %8, i32 0, i32 2
  %10 = load ptr, ptr %9, align 8, !tbaa !44
  call void @free(ptr noundef %10) #12
  %11 = load ptr, ptr %2, align 8, !tbaa !33
  %12 = getelementptr inbounds nuw %struct.Vec_Int_t_, ptr %11, i32 0, i32 2
  store ptr null, ptr %12, align 8, !tbaa !44
  br label %14

13:                                               ; preds = %1
  br label %14

14:                                               ; preds = %13, %7
  %15 = load ptr, ptr %2, align 8, !tbaa !33
  %16 = icmp ne ptr %15, null
  br i1 %16, label %17, label %19

17:                                               ; preds = %14
  %18 = load ptr, ptr %2, align 8, !tbaa !33
  call void @free(ptr noundef %18) #12
  store ptr null, ptr %2, align 8, !tbaa !33
  br label %20

19:                                               ; preds = %14
  br label %20

20:                                               ; preds = %19, %17
  ret void
}

; Function Attrs: inlinehint nounwind uwtable
define internal i32 @Vec_IntSize(ptr noundef %0) #2 {
  %2 = alloca ptr, align 8
  store ptr %0, ptr %2, align 8, !tbaa !33
  %3 = load ptr, ptr %2, align 8, !tbaa !33
  %4 = getelementptr inbounds nuw %struct.Vec_Int_t_, ptr %3, i32 0, i32 1
  %5 = load i32, ptr %4, align 4, !tbaa !42
  ret i32 %5
}

; Function Attrs: nounwind uwtable
define ptr @Gia_ManPerformSopBalanceWin(ptr noundef %0, i32 noundef %1, i32 noundef %2, i32 noundef %3, i32 noundef %4, i32 noundef %5) #0 {
  %7 = alloca ptr, align 8
  %8 = alloca ptr, align 8
  %9 = alloca i32, align 4
  %10 = alloca i32, align 4
  %11 = alloca i32, align 4
  %12 = alloca i32, align 4
  %13 = alloca i32, align 4
  %14 = alloca ptr, align 8
  %15 = alloca ptr, align 8
  %16 = alloca ptr, align 8
  %17 = alloca ptr, align 8
  %18 = alloca i32, align 4
  store ptr %0, ptr %8, align 8, !tbaa !3
  store i32 %1, ptr %9, align 4, !tbaa !8
  store i32 %2, ptr %10, align 4, !tbaa !8
  store i32 %3, ptr %11, align 4, !tbaa !8
  store i32 %4, ptr %12, align 4, !tbaa !8
  store i32 %5, ptr %13, align 4, !tbaa !8
  call void @llvm.lifetime.start.p0(i64 8, ptr %14) #12
  call void @llvm.lifetime.start.p0(i64 8, ptr %15) #12
  call void @llvm.lifetime.start.p0(i64 8, ptr %16) #12
  call void @llvm.lifetime.start.p0(i64 8, ptr %17) #12
  %19 = load ptr, ptr %8, align 8, !tbaa !3
  %20 = load i32, ptr %9, align 4, !tbaa !8
  %21 = load i32, ptr %10, align 4, !tbaa !8
  %22 = call ptr @Gia_ManFindLatest(ptr noundef %19, i32 noundef %20, i32 noundef %21)
  store ptr %22, ptr %14, align 8, !tbaa !33
  %23 = load i32, ptr %13, align 4, !tbaa !8
  %24 = icmp ne i32 %23, 0
  br i1 %24, label %25, label %29

25:                                               ; preds = %6
  %26 = load ptr, ptr %14, align 8, !tbaa !33
  %27 = call i32 @Vec_IntSize(ptr noundef %26)
  %28 = call i32 (ptr, ...) @printf(ptr noundef @.str.2, i32 noundef %27)
  br label %29

29:                                               ; preds = %25, %6
  %30 = load ptr, ptr %14, align 8, !tbaa !33
  %31 = call i32 @Vec_IntSize(ptr noundef %30)
  %32 = icmp eq i32 %31, 0
  br i1 %32, label %33, label %37

33:                                               ; preds = %29
  %34 = load ptr, ptr %14, align 8, !tbaa !33
  call void @Vec_IntFree(ptr noundef %34)
  %35 = load ptr, ptr %8, align 8, !tbaa !3
  %36 = call ptr @Gia_ManDup(ptr noundef %35)
  store ptr %36, ptr %7, align 8
  store i32 1, ptr %18, align 4
  br label %54

37:                                               ; preds = %29
  %38 = load ptr, ptr %8, align 8, !tbaa !3
  %39 = load ptr, ptr %14, align 8, !tbaa !33
  %40 = call ptr @Gia_ManExtractWin(ptr noundef %38, ptr noundef %39, i32 noundef 0)
  store ptr %40, ptr %16, align 8, !tbaa !3
  %41 = load ptr, ptr %16, align 8, !tbaa !3
  %42 = load i32, ptr %11, align 4, !tbaa !8
  %43 = load i32, ptr %12, align 4, !tbaa !8
  %44 = load i32, ptr %13, align 4, !tbaa !8
  %45 = call ptr @Gia_ManPerformSopBalance(ptr noundef %41, i32 noundef %42, i32 noundef %43, i32 noundef %44)
  store ptr %45, ptr %17, align 8, !tbaa !3
  %46 = load ptr, ptr %16, align 8, !tbaa !3
  call void @Gia_ManStop(ptr noundef %46)
  %47 = load ptr, ptr %8, align 8, !tbaa !3
  %48 = load ptr, ptr %14, align 8, !tbaa !33
  %49 = load ptr, ptr %17, align 8, !tbaa !3
  %50 = call ptr @Gia_ManInsertWin(ptr noundef %47, ptr noundef %48, ptr noundef %49)
  store ptr %50, ptr %15, align 8, !tbaa !3
  %51 = load ptr, ptr %17, align 8, !tbaa !3
  call void @Gia_ManStop(ptr noundef %51)
  %52 = load ptr, ptr %14, align 8, !tbaa !33
  call void @Vec_IntFree(ptr noundef %52)
  %53 = load ptr, ptr %15, align 8, !tbaa !3
  store ptr %53, ptr %7, align 8
  store i32 1, ptr %18, align 4
  br label %54

54:                                               ; preds = %37, %33
  call void @llvm.lifetime.end.p0(i64 8, ptr %17) #12
  call void @llvm.lifetime.end.p0(i64 8, ptr %16) #12
  call void @llvm.lifetime.end.p0(i64 8, ptr %15) #12
  call void @llvm.lifetime.end.p0(i64 8, ptr %14) #12
  %55 = load ptr, ptr %7, align 8
  ret ptr %55
}