; Function Attrs: nounwind uwtable
define ptr @Gia_ManPerformSopBalanceWin(ptr noundef %0, i32 noundef %1, i32 noundef %2, i32 noundef %3, i32 noundef %4, i32 noundef %5) local_unnamed_addr #2 {
  %7 = tail call ptr @Gia_ManFindLatest(ptr noundef %0, i32 noundef %1, i32 noundef %2)
  %.not = icmp eq i32 %5, 0
  %.phi.trans.insert = getelementptr i8, ptr %7, i64 4
  %.val.pre = load i32, ptr %.phi.trans.insert, align 4, !tbaa !31
  br i1 %.not, label %._crit_edge, label %8

8:                                                ; preds = %6
  %9 = tail call i32 (ptr, ...) @printf(ptr noundef nonnull dereferenceable(1) @.str.2, i32 noundef %.val.pre)
  br label %._crit_edge

._crit_edge:                                      ; preds = %6, %8
  %10 = icmp eq i32 %.val.pre, 0
  br i1 %10, label %11, label %16

11:                                               ; preds = %._crit_edge
  %12 = getelementptr inbounds nuw i8, ptr %7, i64 8
  %13 = load ptr, ptr %12, align 8, !tbaa !33
  %.not.i = icmp eq ptr %13, null
  br i1 %.not.i, label %Vec_IntFree.exit, label %14

14:                                               ; preds = %11
  tail call void @free(ptr noundef nonnull %13) #17
  br label %Vec_IntFree.exit

Vec_IntFree.exit:                                 ; preds = %11, %14
  tail call void @free(ptr noundef nonnull %7) #17
  %15 = tail call ptr @Gia_ManDup(ptr noundef %0) #17
  br label %23

16:                                               ; preds = %._crit_edge
  %17 = tail call ptr @Gia_ManExtractWin(ptr noundef %0, ptr noundef nonnull %7, i32 noundef 0)
  %18 = tail call ptr @Gia_ManPerformSopBalance(ptr noundef %17, i32 noundef %3, i32 noundef %4, i32 noundef %5) #17
  tail call void @Gia_ManStop(ptr noundef %17) #17
  %19 = tail call ptr @Gia_ManInsertWin(ptr noundef %0, ptr noundef nonnull %7, ptr noundef %18)
  tail call void @Gia_ManStop(ptr noundef %18) #17
  %20 = getelementptr inbounds nuw i8, ptr %7, i64 8
  %21 = load ptr, ptr %20, align 8, !tbaa !33
  %.not.i22 = icmp eq ptr %21, null
  br i1 %.not.i22, label %Vec_IntFree.exit23, label %22

22:                                               ; preds = %16
  tail call void @free(ptr noundef nonnull %21) #17
  br label %Vec_IntFree.exit23

Vec_IntFree.exit23:                               ; preds = %16, %22
  tail call void @free(ptr noundef nonnull %7) #17
  br label %23

23:                                               ; preds = %Vec_IntFree.exit23, %Vec_IntFree.exit
  %.0 = phi ptr [ %15, %Vec_IntFree.exit ], [ %19, %Vec_IntFree.exit23 ]
  ret ptr %.0
}